; Function Attrs: mustprogress nofree nounwind willreturn memory(readwrite, inaccessiblemem: write) uwtable
define internal noundef i32 @Jn(double noundef %0, ptr noundef readonly captures(none) %1, ptr readnone captures(none) %2, ptr noundef readonly captures(none) %3, ptr noundef readonly captures(none) %4, ptr readnone captures(none) %5, ptr readnone captures(none) %6, ptr readnone captures(none) %7) #5 {
  %9 = load double, ptr %4, align 8, !tbaa !12
  %10 = getelementptr inbounds nuw i8, ptr %4, i64 16
  %11 = load double, ptr %10, align 8, !tbaa !12
  %12 = load ptr, ptr %1, align 8, !tbaa !18
  %13 = getelementptr inbounds nuw i8, ptr %12, i64 16
  %14 = load ptr, ptr %13, align 8, !tbaa !21
  %15 = load double, ptr %14, align 8, !tbaa !12
  %16 = getelementptr inbounds nuw i8, ptr %14, i64 8
  %17 = load double, ptr %16, align 8, !tbaa !12
  %18 = fmul double %9, 5.000000e-01
  %19 = tail call double @cos(double noundef %0) #9, !tbaa !26
  %20 = fmul double %19, 5.000000e-01
  %21 = fadd double %20, 1.000000e+00
  %22 = tail call double @sin(double noundef %0) #9, !tbaa !26
  %23 = fmul double %22, 5.000000e-01
  %24 = tail call double @llvm.fmuladd.f64(double %9, double %21, double %23)
  %25 = fmul double %15, 2.000000e+00
  %26 = fmul double %15, %25
  %27 = fdiv double %24, %26
  %28 = fadd double %18, %27
  %29 = load ptr, ptr %3, align 8, !tbaa !37
  %30 = getelementptr inbounds nuw i8, ptr %29, i64 32
  %31 = load ptr, ptr %30, align 8, !tbaa !40
  %32 = load ptr, ptr %31, align 8, !tbaa !30
  store double %28, ptr %32, align 8, !tbaa !12
  %33 = fmul double %11, 5.000000e-01
  %34 = getelementptr i8, ptr %4, i64 8
  %.val = load double, ptr %34, align 8, !tbaa !12
  %35 = fmul double %0, %.val
  %36 = tail call double @cos(double noundef %35) #9, !tbaa !26
  %37 = fadd double %36, 2.000000e+00
  %38 = fmul double %11, %37
  %39 = fmul double %17, 2.000000e+00
  %40 = fmul double %17, %39
  %41 = fdiv double %38, %40
  %42 = fadd double %33, %41
  %43 = getelementptr inbounds nuw i8, ptr %31, i64 8
  %44 = load ptr, ptr %43, align 8, !tbaa !30
  store double %42, ptr %44, align 8, !tbaa !12
  %45 = tail call double @cos(double noundef %0) #9, !tbaa !26
  %46 = fmul double %45, 5.000000e-01
  %47 = fadd double %46, 1.000000e+00
  %48 = fmul double %11, %47
  %49 = fdiv double %48, %26
  %50 = fadd double %33, %49
  %51 = getelementptr inbounds nuw i8, ptr %32, i64 8
  store double %50, ptr %51, align 8, !tbaa !12
  %.val33 = load double, ptr %34, align 8, !tbaa !12
  %52 = fmul double %0, %.val33
  %53 = tail call double @cos(double noundef %52) #9, !tbaa !26
  %54 = fadd double %53, 2.000000e+00
  %55 = fdiv double %54, %40
  %56 = fsub double -5.000000e-01, %55
  %57 = getelementptr inbounds nuw i8, ptr %44, i64 8
  store double %56, ptr %57, align 8, !tbaa !12
  ret i32 0
}